target datalayout = "e-m:e-p270:32:32-p271:32:32-p272:64:64-i64:64-i128:128-f80:128-n8:16:32:64-S128"
target triple = "x86_64-pc-linux-gnu"

%class.anon = type { i8 }
%class.anon.0 = type { i8 }

@.str.6 = private unnamed_addr constant [6 x i8] c"false\00", align 1
@.str.7 = private unnamed_addr constant [64 x i8] c"Number of PBC dimensions was requested before the PBC type set.\00", align 1
@"__PRETTY_FUNCTION__._ZZ16numPbcDimensions7PbcTypeENK3$_0clEv" = private unnamed_addr constant [70 x i8] c"auto numPbcDimensions(PbcType)::(anonymous class)::operator()() const\00", align 1
@.str.8 = private unnamed_addr constant [121 x i8] c"generated/home/dtcxzyw/WorkSpace/Projects/compilers/llvm-opt-benchmark/bench/gromacs/gromacs/src/gromacs/pbcutil/pbc.cpp\00", align 1
@.str.9 = private unnamed_addr constant [36 x i8] c"Invalid pbcType in numPbcDimensions\00", align 1

; Function Attrs: inlinehint mustprogress uwtable
define internal void @"_ZZ16numPbcDimensions7PbcTypeENK3$_1clEv"(ptr noundef nonnull align 1 dereferenceable(1) %0) #8 align 2 {
  %2 = alloca ptr, align 8
  store ptr %0, ptr %2, align 8, !tbaa !38
  call void @_ZN3gmx8internal13assertHandlerEPKcS2_S2_S2_i(ptr noundef @.str.6, ptr noundef @.str.9, ptr noundef @"__PRETTY_FUNCTION__._ZZ16numPbcDimensions7PbcTypeENK3$_0clEv", ptr noundef @.str.8, i32 noundef 121) #20
  unreachable
}

; Function Attrs: inlinehint mustprogress uwtable
define internal void @"_ZZ16numPbcDimensions7PbcTypeENK3$_0clEv"(ptr noundef nonnull align 1 dereferenceable(1) %0) #8 align 2 {
  %2 = alloca ptr, align 8
  store ptr %0, ptr %2, align 8, !tbaa !38
  call void @_ZN3gmx8internal13assertHandlerEPKcS2_S2_S2_i(ptr noundef @.str.6, ptr noundef @.str.7, ptr noundef @"__PRETTY_FUNCTION__._ZZ16numPbcDimensions7PbcTypeENK3$_0clEv", ptr noundef @.str.8, i32 noundef 115) #20
  unreachable
}

; Function Attrs: mustprogress uwtable
define noundef i32 @_Z16numPbcDimensions7PbcType(i32 noundef %0) #3 {
  %2 = alloca i32, align 4
  %3 = alloca i32, align 4
  %4 = alloca %class.anon, align 1
  %5 = alloca %class.anon.0, align 1
  store i32 %0, ptr %2, align 4, !tbaa !34
  call void @llvm.lifetime.start.p0(i64 4, ptr %3) #5
  store i32 0, ptr %3, align 4, !tbaa !36
  %6 = load i32, ptr %2, align 4, !tbaa !34
  switch i32 %6, label %12 [
    i32 4, label %7
    i32 0, label %8
    i32 2, label %9
    i32 3, label %10
    i32 1, label %11
  ]

7:                                                ; preds = %1
  call void @llvm.lifetime.start.p0(i64 1, ptr %4) #5
  call void @"_ZZ16numPbcDimensions7PbcTypeENK3$_0clEv"(ptr noundef nonnull align 1 dereferenceable(1) %4)
  call void @llvm.lifetime.end.p0(i64 1, ptr %4) #5
  br label %13

8:                                                ; preds = %1
  store i32 3, ptr %3, align 4, !tbaa !36
  br label %13

9:                                                ; preds = %1
  store i32 2, ptr %3, align 4, !tbaa !36
  br label %13

10:                                               ; preds = %1
  store i32 3, ptr %3, align 4, !tbaa !36
  br label %13

11:                                               ; preds = %1
  store i32 0, ptr %3, align 4, !tbaa !36
  br label %13

12:                                               ; preds = %1
  call void @llvm.lifetime.start.p0(i64 1, ptr %5) #5
  call void @"_ZZ16numPbcDimensions7PbcTypeENK3$_1clEv"(ptr noundef nonnull align 1 dereferenceable(1) %5)
  call void @llvm.lifetime.end.p0(i64 1, ptr %5) #5
  br label %13

13:                                               ; preds = %12, %11, %10, %9, %8, %7
  %14 = load i32, ptr %3, align 4, !tbaa !36
  call void @llvm.lifetime.end.p0(i64 4, ptr %3) #5
  ret i32 %14
}