; Function Attrs: mustprogress uwtable
define noundef range(i32 0, 4) i32 @_Z16numPbcDimensions7PbcType(i32 noundef %0) local_unnamed_addr #1 {
  switch i32 %0, label %5 [
    i32 4, label %2
    i32 0, label %6
    i32 2, label %3
    i32 3, label %6
    i32 1, label %4
  ]

2:                                                ; preds = %1
  tail call void @_ZN3gmx8internal13assertHandlerEPKcS2_S2_S2_i(ptr noundef nonnull @.str.6, ptr noundef nonnull @.str.7, ptr noundef nonnull @"__PRETTY_FUNCTION__._ZZ16numPbcDimensions7PbcTypeENK3$_0clEv", ptr noundef nonnull @.str.8, i32 noundef 115) #28
  unreachable

3:                                                ; preds = %1
  br label %6

4:                                                ; preds = %1
  br label %6

5:                                                ; preds = %1
  tail call void @_ZN3gmx8internal13assertHandlerEPKcS2_S2_S2_i(ptr noundef nonnull @.str.6, ptr noundef nonnull @.str.9, ptr noundef nonnull @"__PRETTY_FUNCTION__._ZZ16numPbcDimensions7PbcTypeENK3$_0clEv", ptr noundef nonnull @.str.8, i32 noundef 121) #28
  unreachable

6:                                                ; preds = %1, %1, %4, %3
  %.0 = phi i32 [ 0, %4 ], [ 2, %3 ], [ 3, %1 ], [ 3, %1 ]
  ret i32 %.0
}